In archive libavr-liblcd.a:

lcd.o:     file format elf32-avr

Sections:
Idx Name          Size      VMA       LMA       File off  Algn
  0 .text         00000150  00000000  00000000  00000034  2**0
                  CONTENTS, ALLOC, LOAD, RELOC, READONLY, CODE
  1 .data         00000000  00000000  00000000  00000184  2**0
                  CONTENTS, ALLOC, LOAD, DATA
  2 .bss          00000000  00000000  00000000  00000184  2**0
                  ALLOC

Disassembly of section .text:

00000000 <LCD_busy>:
   0:	9f ef       	ldi	r25, 0xFF	; 255
   2:	9a bb       	out	0x1a, r25	; 26
   4:	2b b3       	in	r18, 0x1b	; 27
   6:	8b b3       	in	r24, 0x1b	; 27
   8:	86 60       	ori	r24, 0x06	; 6
   a:	8b bb       	out	0x1b, r24	; 27
   c:	8f e7       	ldi	r24, 0x7F	; 127
   e:	8a bb       	out	0x1a, r24	; 26
  10:	89 b3       	in	r24, 0x19	; 25
  12:	9a bb       	out	0x1a, r25	; 26
  14:	2b bb       	out	0x1b, r18	; 27
  16:	88 1f       	adc	r24, r24
  18:	88 27       	eor	r24, r24
  1a:	88 1f       	adc	r24, r24
  1c:	90 e0       	ldi	r25, 0x00	; 0
  1e:	08 95       	ret

00000020 <LCD_command>:
  20:	2f ef       	ldi	r18, 0xFF	; 255
  22:	2a bb       	out	0x1a, r18	; 26
  24:	28 2f       	mov	r18, r24
  26:	20 7f       	andi	r18, 0xF0	; 240
  28:	2b bb       	out	0x1b, r18	; 27
  2a:	da 9a       	sbi	0x1b, 2	; 27
  2c:	da 98       	cbi	0x1b, 2	; 27
  2e:	24 e0       	ldi	r18, 0x04	; 4
  30:	88 0f       	add	r24, r24
  32:	99 1f       	adc	r25, r25
  34:	2a 95       	dec	r18
  36:	01 f4       	brne	.+0      	; 0x38 <LCD_command+0x18>
  38:	8b bb       	out	0x1b, r24	; 27
  3a:	da 9a       	sbi	0x1b, 2	; 27
  3c:	da 98       	cbi	0x1b, 2	; 27
  3e:	84 ef       	ldi	r24, 0xF4	; 244
  40:	91 e0       	ldi	r25, 0x01	; 1
  42:	01 97       	sbiw	r24, 0x01	; 1
  44:	01 f4       	brne	.+0      	; 0x46 <LCD_command+0x26>
  46:	08 95       	ret

00000048 <LCD_init>:
  48:	cf 93       	push	r28
  4a:	df 93       	push	r29
  4c:	8f ef       	ldi	r24, 0xFF	; 255
  4e:	8a bb       	out	0x1a, r24	; 26
  50:	8b bb       	out	0x1b, r24	; 27
  52:	80 ea       	ldi	r24, 0xA0	; 160
  54:	9f e0       	ldi	r25, 0x0F	; 15
  56:	01 97       	sbiw	r24, 0x01	; 1
  58:	01 f4       	brne	.+0      	; 0x5a <LCD_init+0x12>
  5a:	88 e2       	ldi	r24, 0x28	; 40
  5c:	90 e0       	ldi	r25, 0x00	; 0
  5e:	0e 94 00 00 	call	0	; 0x0 <LCD_busy>
  62:	c4 ef       	ldi	r28, 0xF4	; 244
  64:	d1 e0       	ldi	r29, 0x01	; 1
  66:	ce 01       	movw	r24, r28
  68:	01 97       	sbiw	r24, 0x01	; 1
  6a:	01 f4       	brne	.+0      	; 0x6c <LCD_init+0x24>
  6c:	88 e2       	ldi	r24, 0x28	; 40
  6e:	90 e0       	ldi	r25, 0x00	; 0
  70:	0e 94 00 00 	call	0	; 0x0 <LCD_busy>
  74:	21 97       	sbiw	r28, 0x01	; 1
  76:	01 f4       	brne	.+0      	; 0x78 <LCD_init+0x30>
  78:	8c e0       	ldi	r24, 0x0C	; 12
  7a:	90 e0       	ldi	r25, 0x00	; 0
  7c:	0e 94 00 00 	call	0	; 0x0 <LCD_busy>
  80:	86 e0       	ldi	r24, 0x06	; 6
  82:	90 e0       	ldi	r25, 0x00	; 0
  84:	0e 94 00 00 	call	0	; 0x0 <LCD_busy>
  88:	82 e0       	ldi	r24, 0x02	; 2
  8a:	90 e0       	ldi	r25, 0x00	; 0
  8c:	0e 94 00 00 	call	0	; 0x0 <LCD_busy>
  90:	81 e0       	ldi	r24, 0x01	; 1
  92:	90 e0       	ldi	r25, 0x00	; 0
  94:	0e 94 00 00 	call	0	; 0x0 <LCD_busy>
  98:	81 e0       	ldi	r24, 0x01	; 1
  9a:	90 e0       	ldi	r25, 0x00	; 0
  9c:	0e 94 00 00 	call	0	; 0x0 <LCD_busy>
  a0:	df 91       	pop	r29
  a2:	cf 91       	pop	r28
  a4:	08 95       	ret

000000a6 <LCD_putc>:
  a6:	9f ef       	ldi	r25, 0xFF	; 255
  a8:	9a bb       	out	0x1a, r25	; 26
  aa:	98 2f       	mov	r25, r24
  ac:	90 7f       	andi	r25, 0xF0	; 240
  ae:	91 60       	ori	r25, 0x01	; 1
  b0:	9b bb       	out	0x1b, r25	; 27
  b2:	da 9a       	sbi	0x1b, 2	; 27
  b4:	da 98       	cbi	0x1b, 2	; 27
  b6:	82 95       	swap	r24
  b8:	80 7f       	andi	r24, 0xF0	; 240
  ba:	81 60       	ori	r24, 0x01	; 1
  bc:	8b bb       	out	0x1b, r24	; 27
  be:	da 9a       	sbi	0x1b, 2	; 27
  c0:	da 98       	cbi	0x1b, 2	; 27
  c2:	84 ef       	ldi	r24, 0xF4	; 244
  c4:	91 e0       	ldi	r25, 0x01	; 1
  c6:	01 97       	sbiw	r24, 0x01	; 1
  c8:	01 f4       	brne	.+0      	; 0xca <LCD_putc+0x24>
  ca:	08 95       	ret

000000cc <LCD_print>:
  cc:	ef 92       	push	r14
  ce:	ff 92       	push	r15
  d0:	0f 93       	push	r16
  d2:	1f 93       	push	r17
  d4:	cf 93       	push	r28
  d6:	df 93       	push	r29
  d8:	00 d0       	rcall	.+0      	; 0xda <LCD_print+0xe>
  da:	cd b7       	in	r28, 0x3d	; 61
  dc:	de b7       	in	r29, 0x3e	; 62
  de:	90 e0       	ldi	r25, 0x00	; 0
  e0:	69 83       	std	Y+1, r22	; 0x01
  e2:	7a 83       	std	Y+2, r23	; 0x02
  e4:	0e 94 00 00 	call	0	; 0x0 <LCD_busy>
  e8:	69 81       	ldd	r22, Y+1	; 0x01
  ea:	06 2f       	mov	r16, r22
  ec:	7a 81       	ldd	r23, Y+2	; 0x02
  ee:	17 2f       	mov	r17, r23
  f0:	00 c0       	rjmp	.+0      	; 0xf2 <LCD_print+0x26>
  f2:	0e 94 00 00 	call	0	; 0x0 <LCD_busy>
  f6:	f8 01       	movw	r30, r16
  f8:	81 91       	ld	r24, Z+
  fa:	8f 01       	movw	r16, r30
  fc:	88 23       	and	r24, r24
  fe:	01 f4       	brne	.+0      	; 0x100 <LCD_print+0x34>
 100:	0f 90       	pop	r0
 102:	0f 90       	pop	r0
 104:	df 91       	pop	r29
 106:	cf 91       	pop	r28
 108:	1f 91       	pop	r17
 10a:	0f 91       	pop	r16
 10c:	ff 90       	pop	r15
 10e:	ef 90       	pop	r14
 110:	08 95       	ret

00000112 <LCD_printfirstline>:
 112:	bc 01       	movw	r22, r24
 114:	80 e8       	ldi	r24, 0x80	; 128
 116:	0e 94 00 00 	call	0	; 0x0 <LCD_busy>
 11a:	08 95       	ret

0000011c <LCD_printsecondline>:
 11c:	bc 01       	movw	r22, r24
 11e:	80 ec       	ldi	r24, 0xC0	; 192
 120:	0e 94 00 00 	call	0	; 0x0 <LCD_busy>
 124:	08 95       	ret

00000126 <LCD_clear>:
 126:	80 e0       	ldi	r24, 0x00	; 0
 128:	90 e0       	ldi	r25, 0x00	; 0
 12a:	0e 94 00 00 	call	0	; 0x0 <LCD_busy>
 12e:	08 95       	ret

00000130 <LCD_shift>:
 130:	00 97       	sbiw	r24, 0x00	; 0
 132:	01 f0       	breq	.+0      	; 0x134 <LCD_shift+0x4>
 134:	81 30       	cpi	r24, 0x01	; 1
 136:	91 05       	cpc	r25, r1
 138:	01 f4       	brne	.+0      	; 0x13a <LCD_shift+0xa>
 13a:	00 c0       	rjmp	.+0      	; 0x13c <LCD_shift+0xc>
 13c:	8c e1       	ldi	r24, 0x1C	; 28
 13e:	90 e0       	ldi	r25, 0x00	; 0
 140:	0e 94 00 00 	call	0	; 0x0 <LCD_busy>
 144:	08 95       	ret
 146:	88 e1       	ldi	r24, 0x18	; 24
 148:	90 e0       	ldi	r25, 0x00	; 0
 14a:	0e 94 00 00 	call	0	; 0x0 <LCD_busy>
 14e:	08 95       	ret
